Certificate:
    Data:
        Version: 3 (0x2)
        Serial Number: 2 (0x2)
    Signature Algorithm: sha1WithRSAEncryption
        Issuer: DC=org, DC=simple, O=Simple Inc, OU=Simple Signing CA, CN=Simple Signing CA
        Validity
            Not Before: Dec  7 04:49:34 2018 GMT
            Not After : Dec  6 04:49:34 2020 GMT
        Subject: DC=org, DC=simple, O=Simple Inc, CN=www.simple.org
        Subject Public Key Info:
            Public Key Algorithm: rsaEncryption
                Public-Key: (2048 bit)
                Modulus:
                    00:b0:09:10:94:07:6b:5e:9b:f1:da:4d:fa:88:b3:
                    44:b3:7e:aa:db:6d:40:84:d1:c9:98:04:44:26:4d:
                    c8:02:77:ff:d5:d6:53:6d:d6:1d:69:b1:7e:d7:a3:
                    dd:b9:be:f0:9f:74:47:c0:b2:b0:99:1e:38:c2:2b:
                    14:1d:51:b3:61:3b:92:5d:9e:02:d7:f4:ec:ca:c9:
                    18:b4:bf:21:0a:cf:d4:ee:81:ee:6f:e3:8a:b5:56:
                    3f:f2:ec:72:6a:da:d2:e5:14:55:4b:a4:a1:fd:81:
                    5e:09:25:5e:07:04:06:b3:f7:e0:8e:f8:fd:97:f9:
                    7b:c8:6f:11:b8:b0:d3:9e:9b:68:90:2d:0f:b8:09:
                    7f:fd:eb:01:5e:fc:f0:58:a2:b0:7f:89:42:24:1d:
                    0a:aa:84:81:ea:b7:7e:a5:ab:0a:be:36:cb:bf:eb:
                    ef:47:17:ce:eb:af:e9:bc:ed:30:a8:12:31:5c:2f:
                    7e:03:f3:56:3c:11:d5:4f:51:7b:8a:3b:8c:2d:d6:
                    c0:f1:d5:c5:bd:80:37:32:0e:f1:62:a2:37:07:de:
                    49:5a:26:93:ab:f4:39:5c:e5:9d:96:fd:26:d4:2d:
                    cd:47:35:b6:d5:aa:b5:bc:31:1f:e2:be:59:69:96:
                    35:93:8d:4e:9c:28:86:fb:61:5a:26:12:75:b2:dc:
                    e9:6f
                Exponent: 65537 (0x10001)
        X509v3 extensions:
            X509v3 Key Usage: critical
                Digital Signature, Key Encipherment
            X509v3 Basic Constraints: 
                CA:FALSE
            X509v3 Extended Key Usage: 
                TLS Web Server Authentication, TLS Web Client Authentication
            X509v3 Subject Key Identifier: 
                B5:2C:EC:5B:DD:FA:E6:11:82:9D:65:C7:86:3F:45:FD:91:85:34:26
            X509v3 Authority Key Identifier: 
                keyid:5C:91:D6:F3:3A:7D:73:48:25:64:AF:B8:DF:2A:39:0D:E1:B3:C4:79

            X509v3 Subject Alternative Name: 
                DNS:www.simple.org
    Signature Algorithm: sha1WithRSAEncryption
         1e:53:7a:20:46:02:e1:7f:8d:f4:b0:49:54:4e:dc:89:e4:9c:
         49:b9:f3:71:b7:5e:d7:5f:14:44:ea:91:5c:f2:e2:43:c2:65:
         7e:ed:9f:d4:96:95:85:f8:13:c6:b0:cd:70:6d:54:be:d6:15:
         1a:eb:8c:5c:4f:89:21:be:b8:80:d1:80:bb:c5:88:48:d5:3a:
         3d:29:37:58:de:19:d1:b4:96:00:c0:ef:21:e2:2e:c0:08:b6:
         e9:21:2a:8a:02:e7:ee:ef:a8:b7:9f:7b:06:60:ee:a6:11:06:
         97:38:47:6d:67:b6:d7:63:82:f8:fa:1c:4d:59:f4:7b:5b:90:
         1a:71:de:17:57:d2:b7:f5:84:92:8b:3c:a6:47:c1:54:6b:49:
         63:fc:d0:2d:b8:ba:f7:2f:26:58:50:e8:58:66:40:17:03:d7:
         9f:1e:15:de:aa:8f:49:a4:7d:81:7d:09:a6:b2:9f:44:27:bb:
         9e:0e:bb:25:b5:47:f8:9f:0a:e8:10:c4:d9:34:c9:f5:65:f9:
         73:60:49:23:0d:18:1b:62:13:05:dc:3d:f6:0d:c3:fe:f4:31:
         92:f4:80:ba:3f:c8:e4:3f:c3:6c:55:b2:e4:33:73:87:4e:3b:
         5b:2c:23:ea:f1:a2:c7:de:d3:c3:52:72:fd:b4:58:81:f9:32:
         0a:51:2c:62
-----BEGIN CERTIFICATE-----
MIID6TCCAtGgAwIBAgIBAjANBgkqhkiG9w0BAQUFADB6MRMwEQYKCZImiZPyLGQB
GRYDb3JnMRYwFAYKCZImiZPyLGQBGRYGc2ltcGxlMRMwEQYDVQQKDApTaW1wbGUg
SW5jMRowGAYDVQQLDBFTaW1wbGUgU2lnbmluZyBDQTEaMBgGA1UEAwwRU2ltcGxl
IFNpZ25pbmcgQ0EwHhcNMTgxMjA3MDQ0OTM0WhcNMjAxMjA2MDQ0OTM0WjBbMRMw
EQYKCZImiZPyLGQBGRYDb3JnMRYwFAYKCZImiZPyLGQBGRYGc2ltcGxlMRMwEQYD
VQQKDApTaW1wbGUgSW5jMRcwFQYDVQQDDA53d3cuc2ltcGxlLm9yZzCCASIwDQYJ
KoZIhvcNAQEBBQADggEPADCCAQoCggEBALAJEJQHa16b8dpN+oizRLN+qtttQITR
yZgERCZNyAJ3/9XWU23WHWmxftej3bm+8J90R8CysJkeOMIrFB1Rs2E7kl2eAtf0
7MrJGLS/IQrP1O6B7m/jirVWP/Lscmra0uUUVUukof2BXgklXgcEBrP34I74/Zf5
e8hvEbiw056baJAtD7gJf/3rAV788FiisH+JQiQdCqqEgeq3fqWrCr42y7/r70cX
zuuv6bztMKgSMVwvfgPzVjwR1U9Re4o7jC3WwPHVxb2ANzIO8WKiNwfeSVomk6v0
OVzlnZb9JtQtzUc1ttWqtbwxH+K+WWmWNZONTpwohvthWiYSdbLc6W8CAwEAAaOB
mDCBlTAOBgNVHQ8BAf8EBAMCBaAwCQYDVR0TBAIwADAdBgNVHSUEFjAUBggrBgEF
BQcDAQYIKwYBBQUHAwIwHQYDVR0OBBYEFLUs7Fvd+uYRgp1lx4Y/Rf2RhTQmMB8G
A1UdIwQYMBaAFFyR1vM6fXNIJWSvuN8qOQ3hs8R5MBkGA1UdEQQSMBCCDnd3dy5z
aW1wbGUub3JnMA0GCSqGSIb3DQEBBQUAA4IBAQAeU3ogRgLhf430sElUTtyJ5JxJ
ufNxt17XXxRE6pFc8uJDwmV+7Z/UlpWF+BPGsM1wbVS+1hUa64xcT4khvriA0YC7
xYhI1To9KTdY3hnRtJYAwO8h4i7ACLbpISqKAufu76i3n3sGYO6mEQaXOEdtZ7bX
Y4L4+hxNWfR7W5Aacd4XV9K39YSSizymR8FUa0lj/NAtuLr3LyZYUOhYZkAXA9ef
HhXeqo9JpH2BfQmmsp9EJ7ueDrsltUf4nwroEMTZNMn1ZflzYEkjDRgbYhMF3D32
DcP+9DGS9IC6P8jkP8NsVbLkM3OHTjtbLCPq8aLH3tPDUnL9tFiB+TIKUSxi
-----END CERTIFICATE-----
