Certificate:
    Data:
        Version: 3 (0x2)
        Serial Number: 2 (0x2)
    Signature Algorithm: sha1WithRSAEncryption
        Issuer: DC=org, DC=simple, O=Simple Inc, OU=Simple Root CA, CN=Simple Root CA
        Validity
            Not Before: Dec  7 04:36:04 2018 GMT
            Not After : Dec  6 04:36:04 2028 GMT
        Subject: DC=org, DC=simple, O=Simple Inc, OU=Simple Signing CA, CN=Simple Signing CA
        Subject Public Key Info:
            Public Key Algorithm: rsaEncryption
                Public-Key: (2048 bit)
                Modulus:
                    00:cd:0f:56:b7:26:6c:f3:4c:29:05:bc:ab:92:c5:
                    28:2e:9b:ac:bf:bb:df:7f:ae:56:c6:8d:cb:a9:48:
                    31:d5:b0:9c:04:db:8d:89:fa:41:b1:0f:7e:6d:ea:
                    2d:f9:08:5b:d6:4b:75:a3:06:5d:24:69:af:14:be:
                    4b:33:ee:55:23:2b:47:ee:a1:d1:ec:b1:b7:7e:5b:
                    6c:e6:a8:b0:2b:90:48:1c:1c:9b:d6:c9:6a:d9:18:
                    b8:10:d8:19:3f:d0:c9:8f:fe:b0:7a:3a:98:9d:92:
                    a9:7d:61:50:7d:33:78:f9:87:ab:38:61:ef:80:dc:
                    dd:9e:18:93:a7:97:ab:2d:46:98:f8:c6:93:0b:fa:
                    f0:58:29:51:c7:e9:a9:82:40:9c:fd:9d:2a:97:9c:
                    64:f7:44:ca:8e:7b:38:37:f5:6a:a2:36:b4:cf:f3:
                    5b:32:ba:97:0f:db:ce:6f:02:d5:c9:6d:e2:ba:b7:
                    48:f7:8f:3a:8c:60:79:8a:2a:16:fa:9c:a6:ce:36:
                    41:d9:f3:40:a4:56:6a:7c:40:10:4c:d2:44:19:df:
                    c6:27:09:fc:4b:30:d9:33:48:25:40:1a:7b:32:4f:
                    19:a9:a8:16:5f:19:a7:d0:b9:30:f6:b3:21:45:34:
                    84:3f:eb:9d:15:01:f2:95:2b:85:6d:ea:17:28:ca:
                    d7:5f
                Exponent: 65537 (0x10001)
        X509v3 extensions:
            X509v3 Key Usage: critical
                Certificate Sign, CRL Sign
            X509v3 Basic Constraints: critical
                CA:TRUE, pathlen:0
            X509v3 Subject Key Identifier: 
                5C:91:D6:F3:3A:7D:73:48:25:64:AF:B8:DF:2A:39:0D:E1:B3:C4:79
            X509v3 Authority Key Identifier: 
                keyid:78:62:D1:13:FC:3E:F1:27:28:15:45:1D:D5:7B:10:E1:B7:04:81:C7

    Signature Algorithm: sha1WithRSAEncryption
         84:86:d6:18:ad:e0:9d:66:c8:63:8e:b1:55:38:d9:1c:99:0a:
         8c:3a:4b:a2:87:ab:82:7f:2d:45:e1:be:f6:4e:71:f5:06:50:
         32:a3:36:4d:82:46:57:9d:46:ef:11:2d:e2:7b:03:6a:78:69:
         7b:44:2a:0b:4b:62:a9:06:b2:1c:35:c8:93:ef:d9:f7:9a:05:
         9f:c4:75:15:9d:6c:84:5c:d0:67:fc:0d:5c:4f:f1:b3:bb:5a:
         3c:c2:1e:e9:95:71:37:cc:25:32:46:ce:50:83:10:0b:f8:03:
         a3:48:5a:71:d9:87:d5:7b:4b:59:f5:56:d7:54:0f:e0:a7:7e:
         2e:24:1d:a3:37:a4:fd:f3:5f:f4:29:f7:ed:74:cc:98:69:ed:
         6b:ed:1a:e3:13:75:48:d1:13:e3:c5:30:ec:cd:94:2c:2e:95:
         e2:94:33:9e:83:35:80:d2:4b:91:d9:11:bb:ec:40:87:c4:bc:
         01:b6:1a:70:0c:c7:71:c9:10:63:23:22:06:5b:c4:00:01:c1:
         82:bd:1b:9f:2c:06:14:44:fd:8e:dc:5d:02:1c:d4:64:da:5b:
         33:20:78:8c:2b:e6:df:5b:63:f3:02:0a:3b:25:d4:a6:67:f9:
         9a:c2:8b:29:42:0a:1c:c3:e4:c2:a0:94:be:be:9c:98:58:c1:
         ca:c2:75:11
-----BEGIN CERTIFICATE-----
MIIDzzCCAregAwIBAgIBAjANBgkqhkiG9w0BAQUFADB0MRMwEQYKCZImiZPyLGQB
GRYDb3JnMRYwFAYKCZImiZPyLGQBGRYGc2ltcGxlMRMwEQYDVQQKDApTaW1wbGUg
SW5jMRcwFQYDVQQLDA5TaW1wbGUgUm9vdCBDQTEXMBUGA1UEAwwOU2ltcGxlIFJv
b3QgQ0EwHhcNMTgxMjA3MDQzNjA0WhcNMjgxMjA2MDQzNjA0WjB6MRMwEQYKCZIm
iZPyLGQBGRYDb3JnMRYwFAYKCZImiZPyLGQBGRYGc2ltcGxlMRMwEQYDVQQKDApT
aW1wbGUgSW5jMRowGAYDVQQLDBFTaW1wbGUgU2lnbmluZyBDQTEaMBgGA1UEAwwR
U2ltcGxlIFNpZ25pbmcgQ0EwggEiMA0GCSqGSIb3DQEBAQUAA4IBDwAwggEKAoIB
AQDND1a3JmzzTCkFvKuSxSgum6y/u99/rlbGjcupSDHVsJwE242J+kGxD35t6i35
CFvWS3WjBl0kaa8Uvksz7lUjK0fuodHssbd+W2zmqLArkEgcHJvWyWrZGLgQ2Bk/
0MmP/rB6Opidkql9YVB9M3j5h6s4Ye+A3N2eGJOnl6stRpj4xpML+vBYKVHH6amC
QJz9nSqXnGT3RMqOezg39WqiNrTP81syupcP285vAtXJbeK6t0j3jzqMYHmKKhb6
nKbONkHZ80CkVmp8QBBM0kQZ38YnCfxLMNkzSCVAGnsyTxmpqBZfGafQuTD2syFF
NIQ/650VAfKVK4Vt6hcoytdfAgMBAAGjZjBkMA4GA1UdDwEB/wQEAwIBBjASBgNV
HRMBAf8ECDAGAQH/AgEAMB0GA1UdDgQWBBRckdbzOn1zSCVkr7jfKjkN4bPEeTAf
BgNVHSMEGDAWgBR4YtET/D7xJygVRR3VexDhtwSBxzANBgkqhkiG9w0BAQUFAAOC
AQEAhIbWGK3gnWbIY46xVTjZHJkKjDpLooergn8tReG+9k5x9QZQMqM2TYJGV51G
7xEt4nsDanhpe0QqC0tiqQayHDXIk+/Z95oFn8R1FZ1shFzQZ/wNXE/xs7taPMIe
6ZVxN8wlMkbOUIMQC/gDo0hacdmH1XtLWfVW11QP4Kd+LiQdozek/fNf9Cn37XTM
mGnta+0a4xN1SNET48Uw7M2ULC6V4pQznoM1gNJLkdkRu+xAh8S8AbYacAzHcckQ
YyMiBlvEAAHBgr0bnywGFET9jtxdAhzUZNpbMyB4jCvm31tj8wIKOyXUpmf5msKL
KUIKHMPkwqCUvr6cmFjBysJ1EQ==
-----END CERTIFICATE-----
Certificate:
    Data:
        Version: 3 (0x2)
        Serial Number: 1 (0x1)
    Signature Algorithm: sha1WithRSAEncryption
        Issuer: DC=org, DC=simple, O=Simple Inc, OU=Simple Root CA, CN=Simple Root CA
        Validity
            Not Before: Dec  7 04:24:53 2018 GMT
            Not After : Dec  6 04:24:53 2028 GMT
        Subject: DC=org, DC=simple, O=Simple Inc, OU=Simple Root CA, CN=Simple Root CA
        Subject Public Key Info:
            Public Key Algorithm: rsaEncryption
                Public-Key: (2048 bit)
                Modulus:
                    00:e5:85:6e:62:74:cf:af:a7:7d:bc:42:6b:44:b8:
                    59:db:79:81:e6:09:8a:3d:78:28:b8:12:91:79:3e:
                    41:6e:f4:9e:e0:df:9e:34:d9:44:67:f8:c9:86:ce:
                    5b:92:32:7e:74:5a:07:6d:17:9f:dc:a9:7c:ec:53:
                    c0:54:27:53:6f:8d:7e:4a:d8:bb:96:d1:49:dd:c2:
                    7a:7a:ca:b4:02:18:ea:a3:bd:21:be:d6:c1:45:d4:
                    b6:b4:e8:b8:6c:eb:c8:da:39:43:97:aa:12:ef:53:
                    a4:0a:53:74:23:18:42:99:b7:13:da:00:cf:47:b1:
                    b1:df:97:b1:0a:f1:83:89:5b:be:0e:fb:9a:93:1b:
                    ec:4d:0f:5b:fb:ed:84:a2:8e:43:3a:07:4b:83:2c:
                    2b:58:78:37:ce:a5:24:1a:eb:85:74:65:c6:16:98:
                    72:c1:01:bc:6b:a2:33:32:a7:ed:6c:05:ef:3d:52:
                    d1:7d:04:13:01:a9:a7:f2:90:5e:93:3d:79:17:fe:
                    b4:ad:13:4d:79:42:de:4e:da:fb:30:fd:be:a5:7e:
                    7f:29:9d:df:37:41:1b:fe:b5:84:36:0e:ad:a6:c5:
                    0a:f7:34:66:00:77:ab:49:f0:fd:6e:2f:71:6a:23:
                    87:cb:31:a3:98:45:3c:9d:0a:82:7b:37:1a:8a:6d:
                    ec:21
                Exponent: 65537 (0x10001)
        X509v3 extensions:
            X509v3 Key Usage: critical
                Certificate Sign, CRL Sign
            X509v3 Basic Constraints: critical
                CA:TRUE
            X509v3 Subject Key Identifier: 
                78:62:D1:13:FC:3E:F1:27:28:15:45:1D:D5:7B:10:E1:B7:04:81:C7
            X509v3 Authority Key Identifier: 
                keyid:78:62:D1:13:FC:3E:F1:27:28:15:45:1D:D5:7B:10:E1:B7:04:81:C7

    Signature Algorithm: sha1WithRSAEncryption
         09:f0:fd:5d:4a:51:24:14:a7:a4:9d:05:08:62:b6:c1:6e:29:
         ab:36:2f:70:31:1b:3d:90:64:1b:03:86:fe:1b:ce:8c:6f:b9:
         5d:4b:f5:8c:21:bb:2d:fe:5c:11:65:bd:9b:e3:75:62:16:34:
         73:a3:fb:11:a5:bb:72:1f:ee:03:91:0a:d5:cd:67:c7:98:01:
         8c:bf:73:de:03:8d:ef:a9:22:88:d1:94:c5:bc:bf:9c:5b:ed:
         42:53:c1:19:de:3c:a1:0c:07:0c:bd:cb:e7:c7:1b:f6:1f:21:
         b2:87:b4:65:e4:78:7b:ba:c0:26:00:a1:87:cf:42:79:f3:ac:
         5f:ca:22:4b:9b:e4:f2:34:bf:1f:1f:0d:01:f3:f2:38:06:d4:
         28:46:cf:59:20:06:3e:29:6c:6d:e1:be:34:c2:b4:e0:5c:61:
         e2:2d:35:ab:10:d6:55:b2:73:87:17:c0:84:0e:81:5f:14:9c:
         bd:69:9e:b6:ca:f2:de:ca:b3:78:d1:3a:a3:a3:93:db:6f:f6:
         75:4a:58:9d:7a:09:36:5e:7d:28:d3:15:88:9b:8b:e4:49:f4:
         d8:18:05:d6:5b:06:6a:0d:ff:24:c8:fb:22:ee:72:0c:02:7c:
         90:db:63:f2:77:ca:ce:5c:08:27:8d:ac:b5:67:2a:aa:c5:39:
         5f:62:46:89
-----BEGIN CERTIFICATE-----
MIIDxjCCAq6gAwIBAgIBATANBgkqhkiG9w0BAQUFADB0MRMwEQYKCZImiZPyLGQB
GRYDb3JnMRYwFAYKCZImiZPyLGQBGRYGc2ltcGxlMRMwEQYDVQQKDApTaW1wbGUg
SW5jMRcwFQYDVQQLDA5TaW1wbGUgUm9vdCBDQTEXMBUGA1UEAwwOU2ltcGxlIFJv
b3QgQ0EwHhcNMTgxMjA3MDQyNDUzWhcNMjgxMjA2MDQyNDUzWjB0MRMwEQYKCZIm
iZPyLGQBGRYDb3JnMRYwFAYKCZImiZPyLGQBGRYGc2ltcGxlMRMwEQYDVQQKDApT
aW1wbGUgSW5jMRcwFQYDVQQLDA5TaW1wbGUgUm9vdCBDQTEXMBUGA1UEAwwOU2lt
cGxlIFJvb3QgQ0EwggEiMA0GCSqGSIb3DQEBAQUAA4IBDwAwggEKAoIBAQDlhW5i
dM+vp328QmtEuFnbeYHmCYo9eCi4EpF5PkFu9J7g35402URn+MmGzluSMn50Wgdt
F5/cqXzsU8BUJ1NvjX5K2LuW0Undwnp6yrQCGOqjvSG+1sFF1La06Lhs68jaOUOX
qhLvU6QKU3QjGEKZtxPaAM9HsbHfl7EK8YOJW74O+5qTG+xND1v77YSijkM6B0uD
LCtYeDfOpSQa64V0ZcYWmHLBAbxrojMyp+1sBe89UtF9BBMBqafykF6TPXkX/rSt
E015Qt5O2vsw/b6lfn8pnd83QRv+tYQ2Dq2mxQr3NGYAd6tJ8P1uL3FqI4fLMaOY
RTydCoJ7NxqKbewhAgMBAAGjYzBhMA4GA1UdDwEB/wQEAwIBBjAPBgNVHRMBAf8E
BTADAQH/MB0GA1UdDgQWBBR4YtET/D7xJygVRR3VexDhtwSBxzAfBgNVHSMEGDAW
gBR4YtET/D7xJygVRR3VexDhtwSBxzANBgkqhkiG9w0BAQUFAAOCAQEACfD9XUpR
JBSnpJ0FCGK2wW4pqzYvcDEbPZBkGwOG/hvOjG+5XUv1jCG7Lf5cEWW9m+N1YhY0
c6P7EaW7ch/uA5EK1c1nx5gBjL9z3gON76kiiNGUxby/nFvtQlPBGd48oQwHDL3L
58cb9h8hsoe0ZeR4e7rAJgChh89CefOsX8oiS5vk8jS/Hx8NAfPyOAbUKEbPWSAG
PilsbeG+NMK04Fxh4i01qxDWVbJzhxfAhA6BXxScvWmetsry3sqzeNE6o6OT22/2
dUpYnXoJNl59KNMViJuL5En02BgF1lsGag3/JMj7Iu5yDAJ8kNtj8nfKzlwIJ42s
tWcqqsU5X2JGiQ==
-----END CERTIFICATE-----
