Certificate:
    Data:
        Version: 3 (0x2)
        Serial Number: 2 (0x2)
    Signature Algorithm: sha1WithRSAEncryption
        Issuer: DC=org, DC=simple, O=Simple Inc, OU=Simple Root CA, CN=Simple Root CA
        Validity
            Not Before: Dec  7 04:36:04 2018 GMT
            Not After : Dec  6 04:36:04 2028 GMT
        Subject: DC=org, DC=simple, O=Simple Inc, OU=Simple Signing CA, CN=Simple Signing CA
        Subject Public Key Info:
            Public Key Algorithm: rsaEncryption
                Public-Key: (2048 bit)
                Modulus:
                    00:cd:0f:56:b7:26:6c:f3:4c:29:05:bc:ab:92:c5:
                    28:2e:9b:ac:bf:bb:df:7f:ae:56:c6:8d:cb:a9:48:
                    31:d5:b0:9c:04:db:8d:89:fa:41:b1:0f:7e:6d:ea:
                    2d:f9:08:5b:d6:4b:75:a3:06:5d:24:69:af:14:be:
                    4b:33:ee:55:23:2b:47:ee:a1:d1:ec:b1:b7:7e:5b:
                    6c:e6:a8:b0:2b:90:48:1c:1c:9b:d6:c9:6a:d9:18:
                    b8:10:d8:19:3f:d0:c9:8f:fe:b0:7a:3a:98:9d:92:
                    a9:7d:61:50:7d:33:78:f9:87:ab:38:61:ef:80:dc:
                    dd:9e:18:93:a7:97:ab:2d:46:98:f8:c6:93:0b:fa:
                    f0:58:29:51:c7:e9:a9:82:40:9c:fd:9d:2a:97:9c:
                    64:f7:44:ca:8e:7b:38:37:f5:6a:a2:36:b4:cf:f3:
                    5b:32:ba:97:0f:db:ce:6f:02:d5:c9:6d:e2:ba:b7:
                    48:f7:8f:3a:8c:60:79:8a:2a:16:fa:9c:a6:ce:36:
                    41:d9:f3:40:a4:56:6a:7c:40:10:4c:d2:44:19:df:
                    c6:27:09:fc:4b:30:d9:33:48:25:40:1a:7b:32:4f:
                    19:a9:a8:16:5f:19:a7:d0:b9:30:f6:b3:21:45:34:
                    84:3f:eb:9d:15:01:f2:95:2b:85:6d:ea:17:28:ca:
                    d7:5f
                Exponent: 65537 (0x10001)
        X509v3 extensions:
            X509v3 Key Usage: critical
                Certificate Sign, CRL Sign
            X509v3 Basic Constraints: critical
                CA:TRUE, pathlen:0
            X509v3 Subject Key Identifier: 
                5C:91:D6:F3:3A:7D:73:48:25:64:AF:B8:DF:2A:39:0D:E1:B3:C4:79
            X509v3 Authority Key Identifier: 
                keyid:78:62:D1:13:FC:3E:F1:27:28:15:45:1D:D5:7B:10:E1:B7:04:81:C7

    Signature Algorithm: sha1WithRSAEncryption
         84:86:d6:18:ad:e0:9d:66:c8:63:8e:b1:55:38:d9:1c:99:0a:
         8c:3a:4b:a2:87:ab:82:7f:2d:45:e1:be:f6:4e:71:f5:06:50:
         32:a3:36:4d:82:46:57:9d:46:ef:11:2d:e2:7b:03:6a:78:69:
         7b:44:2a:0b:4b:62:a9:06:b2:1c:35:c8:93:ef:d9:f7:9a:05:
         9f:c4:75:15:9d:6c:84:5c:d0:67:fc:0d:5c:4f:f1:b3:bb:5a:
         3c:c2:1e:e9:95:71:37:cc:25:32:46:ce:50:83:10:0b:f8:03:
         a3:48:5a:71:d9:87:d5:7b:4b:59:f5:56:d7:54:0f:e0:a7:7e:
         2e:24:1d:a3:37:a4:fd:f3:5f:f4:29:f7:ed:74:cc:98:69:ed:
         6b:ed:1a:e3:13:75:48:d1:13:e3:c5:30:ec:cd:94:2c:2e:95:
         e2:94:33:9e:83:35:80:d2:4b:91:d9:11:bb:ec:40:87:c4:bc:
         01:b6:1a:70:0c:c7:71:c9:10:63:23:22:06:5b:c4:00:01:c1:
         82:bd:1b:9f:2c:06:14:44:fd:8e:dc:5d:02:1c:d4:64:da:5b:
         33:20:78:8c:2b:e6:df:5b:63:f3:02:0a:3b:25:d4:a6:67:f9:
         9a:c2:8b:29:42:0a:1c:c3:e4:c2:a0:94:be:be:9c:98:58:c1:
         ca:c2:75:11
-----BEGIN CERTIFICATE-----
MIIDzzCCAregAwIBAgIBAjANBgkqhkiG9w0BAQUFADB0MRMwEQYKCZImiZPyLGQB
GRYDb3JnMRYwFAYKCZImiZPyLGQBGRYGc2ltcGxlMRMwEQYDVQQKDApTaW1wbGUg
SW5jMRcwFQYDVQQLDA5TaW1wbGUgUm9vdCBDQTEXMBUGA1UEAwwOU2ltcGxlIFJv
b3QgQ0EwHhcNMTgxMjA3MDQzNjA0WhcNMjgxMjA2MDQzNjA0WjB6MRMwEQYKCZIm
iZPyLGQBGRYDb3JnMRYwFAYKCZImiZPyLGQBGRYGc2ltcGxlMRMwEQYDVQQKDApT
aW1wbGUgSW5jMRowGAYDVQQLDBFTaW1wbGUgU2lnbmluZyBDQTEaMBgGA1UEAwwR
U2ltcGxlIFNpZ25pbmcgQ0EwggEiMA0GCSqGSIb3DQEBAQUAA4IBDwAwggEKAoIB
AQDND1a3JmzzTCkFvKuSxSgum6y/u99/rlbGjcupSDHVsJwE242J+kGxD35t6i35
CFvWS3WjBl0kaa8Uvksz7lUjK0fuodHssbd+W2zmqLArkEgcHJvWyWrZGLgQ2Bk/
0MmP/rB6Opidkql9YVB9M3j5h6s4Ye+A3N2eGJOnl6stRpj4xpML+vBYKVHH6amC
QJz9nSqXnGT3RMqOezg39WqiNrTP81syupcP285vAtXJbeK6t0j3jzqMYHmKKhb6
nKbONkHZ80CkVmp8QBBM0kQZ38YnCfxLMNkzSCVAGnsyTxmpqBZfGafQuTD2syFF
NIQ/650VAfKVK4Vt6hcoytdfAgMBAAGjZjBkMA4GA1UdDwEB/wQEAwIBBjASBgNV
HRMBAf8ECDAGAQH/AgEAMB0GA1UdDgQWBBRckdbzOn1zSCVkr7jfKjkN4bPEeTAf
BgNVHSMEGDAWgBR4YtET/D7xJygVRR3VexDhtwSBxzANBgkqhkiG9w0BAQUFAAOC
AQEAhIbWGK3gnWbIY46xVTjZHJkKjDpLooergn8tReG+9k5x9QZQMqM2TYJGV51G
7xEt4nsDanhpe0QqC0tiqQayHDXIk+/Z95oFn8R1FZ1shFzQZ/wNXE/xs7taPMIe
6ZVxN8wlMkbOUIMQC/gDo0hacdmH1XtLWfVW11QP4Kd+LiQdozek/fNf9Cn37XTM
mGnta+0a4xN1SNET48Uw7M2ULC6V4pQznoM1gNJLkdkRu+xAh8S8AbYacAzHcckQ
YyMiBlvEAAHBgr0bnywGFET9jtxdAhzUZNpbMyB4jCvm31tj8wIKOyXUpmf5msKL
KUIKHMPkwqCUvr6cmFjBysJ1EQ==
-----END CERTIFICATE-----
